; Function Attrs: mustprogress nounwind uwtable
define dso_local void @_ZN4llvm18TargetLoweringBase23setMaximumJumpTableSizeEj(ptr nocapture noundef nonnull readnone align 8 dereferenceable(408123) %0, i32 noundef %1) local_unnamed_addr #0 align 2 {
  %3 = alloca i32, align 4
  store i32 %1, ptr %3, align 4
  store i32 %1, ptr getelementptr inbounds (i8, ptr @_ZL20MaximumJumpTableSize, i64 128), align 8
  %4 = load ptr, ptr getelementptr inbounds (i8, ptr @_ZL20MaximumJumpTableSize, i64 176), align 8
  %.not.i.i.i = icmp eq ptr %4, null
  br i1 %.not.i.i.i, label %5, label %_ZN4llvm2cl3optIjLb0ENS0_6parserIjEEEaSIjEERjRKT_.exit

5:                                                ; preds = %2
  tail call void @_ZSt25__throw_bad_function_callv() #29
  unreachable

_ZN4llvm2cl3optIjLb0ENS0_6parserIjEEEaSIjEERjRKT_.exit: ; preds = %2
  %6 = load ptr, ptr getelementptr inbounds (i8, ptr @_ZL20MaximumJumpTableSize, i64 184), align 8
  call void %6(ptr noundef nonnull align 8 dereferenceable(16) getelementptr inbounds nuw (i8, ptr @_ZL20MaximumJumpTableSize, i64 160), ptr noundef nonnull align 4 dereferenceable(4) %3) #26
  ret void
}